target datalayout = "e-m:e-p270:32:32-p271:32:32-p272:64:64-i64:64-i128:128-f80:128-n8:16:32:64-S128"
target triple = "x86_64-pc-linux-gnu"

%struct.Curl_multi = type { i32, i32, i32, %struct.Curl_llist, %struct.Curl_llist, %struct.Curl_llist, %struct.Curl_llist, i64, ptr, ptr, ptr, ptr, %struct.Curl_hash, ptr, %struct.PslCache, ptr, ptr, i64, ptr, i64, ptr, i64, %struct.Curl_hash, %struct.Curl_hash, %struct.cpool, i64, i64, ptr, ptr, i64, %struct.curltime, [2 x i32], i32, i32, i8, i8 }
%struct.Curl_llist = type { ptr, ptr, ptr, i64 }
%struct.PslCache = type { ptr, i64, i8 }
%struct.Curl_hash = type { ptr, ptr, ptr, ptr, i64, i64 }
%struct.cpool = type { %struct.Curl_hash, i64, i64, i64, %struct.curltime, %struct.Curl_llist, ptr, ptr, ptr, ptr, i8 }
%struct.curltime = type { i64, i32 }
%struct.Curl_llist_node = type { ptr, ptr, ptr, ptr }
%struct.Curl_easy = type { i32, i64, i64, ptr, %struct.Curl_llist_node, %struct.Curl_llist_node, i32, i32, %struct.Curl_message, %struct.easy_pollset, %struct.Names, ptr, ptr, ptr, ptr, %struct.SingleRequest, %struct.UserDefined, ptr, ptr, ptr, %struct.Progress, %struct.UrlState, ptr, %struct.PureInfo, %struct.curl_tlssessioninfo }
%struct.Curl_message = type { %struct.Curl_llist_node, %struct.CURLMsg }
%struct.CURLMsg = type { i32, ptr, %union.anon }
%union.anon = type { ptr }
%struct.easy_pollset = type { [5 x i32], i32, [5 x i8] }
%struct.Names = type { ptr, i32 }
%struct.SingleRequest = type <{ i64, i64, i64, i64, %struct.curltime, i32, i32, i32, i32, i64, i32, i32, i8, i8, [2 x i8], i32, ptr, ptr, %struct.bufq, i64, i64, ptr, ptr, %union.anon.0, ptr, i8, i32, [3 x i8] }>
%struct.bufq = type { ptr, ptr, ptr, ptr, i64, i64, i64, i32 }
%union.anon.0 = type { ptr }
%struct.UserDefined = type <{ ptr, ptr, ptr, ptr, ptr, ptr, i64, i64, i64, ptr, ptr, i64, ptr, ptr, ptr, ptr, ptr, ptr, ptr, ptr, ptr, ptr, ptr, ptr, ptr, ptr, ptr, ptr, ptr, ptr, ptr, ptr, ptr, ptr, ptr, i64, i64, i64, i64, i64, i64, i64, i64, i64, ptr, ptr, %struct.curl_mimepart, ptr, ptr, ptr, i64, %struct.ssl_config_data, %struct.ssl_config_data, ptr, i16, i8, i8, %struct.ssl_general_config, i32, i32, i32, [4 x i8], ptr, ptr, i64, i32, i8, i8, i8, i8, ptr, ptr, ptr, i32, [4 x i8], [74 x ptr], [8 x ptr], i32, i32, i32, [4 x i8], ptr, i32, [4 x i8], ptr, ptr, ptr, ptr, ptr, i32, i32, i32, i32, i32, i32, i32, i32, i64, ptr, ptr, i64, ptr, i64, ptr, ptr, ptr, ptr, i32, i16, i16, i16, i8, i8, i8, i8, i8, i8, i8, i8, i64, [6 x i8] }>
%struct.curl_mimepart = type { ptr, ptr, i32, i32, ptr, ptr, ptr, ptr, ptr, ptr, ptr, ptr, ptr, ptr, ptr, i64, %struct.mime_state, ptr, %struct.mime_encoder_state, i64 }
%struct.mime_state = type { i32, ptr, i64 }
%struct.mime_encoder_state = type { i64, i64, i64, [256 x i8] }
%struct.ssl_config_data = type { %struct.ssl_primary_config, i64, ptr, ptr, ptr, ptr, ptr, ptr, ptr, i16 }
%struct.ssl_primary_config = type { ptr, ptr, ptr, ptr, ptr, ptr, ptr, ptr, ptr, ptr, ptr, ptr, ptr, ptr, i8, i32, i8, i8 }
%struct.ssl_general_config = type { i32 }
%struct.Progress = type { i64, %struct.pgrs_dir, %struct.pgrs_dir, i64, i64, i32, i32, i64, i64, i64, i64, i64, i64, i64, i64, i64, %struct.curltime, %struct.curltime, %struct.curltime, %struct.curltime, %struct.curltime, [6 x i64], [6 x %struct.curltime], i32, i8 }
%struct.pgrs_dir = type { i64, i64, i64, %struct.pgrs_measure }
%struct.pgrs_measure = type { %struct.curltime, i64 }
%struct.UrlState = type { %struct.curltime, i64, i64, %struct.dynbuf, ptr, i64, ptr, i32, i32, i32, ptr, i32, i64, i32, ptr, %struct.digestdata, %struct.digestdata, %struct.auth, %struct.auth, %struct.Curl_async, ptr, i8, %struct.curltime, %struct.Curl_tree, %struct.Curl_llist, [15 x %struct.time_node], ptr, ptr, i64, i64, i64, i64, [32 x i8], i64, ptr, ptr, ptr, %struct.urlpieces, ptr, ptr, ptr, ptr, ptr, i64, %struct.dynbuf, %struct.Curl_llist, [2 x %struct.curl_header], ptr, i32, ptr, ptr, %struct.store_netrc, %struct.dynamically_allocated_data, i8, i8, i8, i8, i32 }
%struct.digestdata = type { ptr, ptr, ptr, ptr, ptr, ptr, i32, i8, i8 }
%struct.auth = type { i64, i64, i64, i8 }
%struct.Curl_async = type { ptr, ptr, ptr, ptr, i32, i32, i8 }
%struct.Curl_tree = type { ptr, ptr, ptr, ptr, %struct.curltime, ptr }
%struct.time_node = type { %struct.Curl_llist_node, %struct.curltime, i32 }
%struct.urlpieces = type { ptr, ptr, ptr, ptr, ptr, ptr, ptr, ptr }
%struct.dynbuf = type { ptr, i64, i64, i64 }
%struct.curl_header = type { ptr, ptr, i64, i64, i32, ptr }
%struct.store_netrc = type { %struct.dynbuf, ptr, i8 }
%struct.dynamically_allocated_data = type { ptr, ptr, ptr, ptr, ptr, ptr, ptr, ptr, ptr, ptr, ptr, ptr, ptr, ptr }
%struct.PureInfo = type { i32, i32, i32, i64, i64, i64, i64, i64, i64, i64, ptr, ptr, i64, i32, %struct.ip_quadruple, i32, ptr, i32, %struct.curl_certinfo, i32, i8 }
%struct.ip_quadruple = type { [46 x i8], [46 x i8], i32, i32 }
%struct.curl_certinfo = type { i32, ptr }
%struct.curl_tlssessioninfo = type { i32, ptr }
%struct.curl_trc_feat = type { ptr, i32 }

@.str.1 = private unnamed_addr constant [40 x i8] c"Internal error clearing splay node = %d\00", align 1

; Function Attrs: nounwind uwtable
define hidden zeroext i1 @Curl_expire_clear(ptr noundef %0) #0 {
  %2 = alloca i1, align 1
  %3 = alloca ptr, align 8
  %4 = alloca ptr, align 8
  %5 = alloca ptr, align 8
  %6 = alloca i32, align 4
  %7 = alloca ptr, align 8
  %8 = alloca i32, align 4
  store ptr %0, ptr %3, align 8, !tbaa !43
  call void @llvm.lifetime.start.p0(i64 8, ptr %4) #9
  %9 = load ptr, ptr %3, align 8, !tbaa !43
  %10 = getelementptr inbounds nuw %struct.Curl_easy, ptr %9, i32 0, i32 11
  %11 = load ptr, ptr %10, align 8, !tbaa !100
  store ptr %11, ptr %4, align 8, !tbaa !9
  call void @llvm.lifetime.start.p0(i64 8, ptr %5) #9
  %12 = load ptr, ptr %3, align 8, !tbaa !43
  %13 = getelementptr inbounds nuw %struct.Curl_easy, ptr %12, i32 0, i32 21
  %14 = getelementptr inbounds nuw %struct.UrlState, ptr %13, i32 0, i32 22
  store ptr %14, ptr %5, align 8, !tbaa !145
  %15 = load ptr, ptr %4, align 8, !tbaa !9
  %16 = icmp ne ptr %15, null
  br i1 %16, label %18, label %17

17:                                               ; preds = %1
  store i1 false, ptr %2, align 1
  store i32 1, ptr %6, align 4
  br label %83

18:                                               ; preds = %1
  %19 = load ptr, ptr %5, align 8, !tbaa !145
  %20 = getelementptr inbounds nuw %struct.curltime, ptr %19, i32 0, i32 0
  %21 = load i64, ptr %20, align 8, !tbaa !147
  %22 = icmp ne i64 %21, 0
  br i1 %22, label %28, label %23

23:                                               ; preds = %18
  %24 = load ptr, ptr %5, align 8, !tbaa !145
  %25 = getelementptr inbounds nuw %struct.curltime, ptr %24, i32 0, i32 1
  %26 = load i32, ptr %25, align 8, !tbaa !148
  %27 = icmp ne i32 %26, 0
  br i1 %27, label %28, label %82

28:                                               ; preds = %23, %18
  call void @llvm.lifetime.start.p0(i64 8, ptr %7) #9
  %29 = load ptr, ptr %3, align 8, !tbaa !43
  %30 = getelementptr inbounds nuw %struct.Curl_easy, ptr %29, i32 0, i32 21
  %31 = getelementptr inbounds nuw %struct.UrlState, ptr %30, i32 0, i32 24
  store ptr %31, ptr %7, align 8, !tbaa !149
  call void @llvm.lifetime.start.p0(i64 4, ptr %8) #9
  %32 = load ptr, ptr %4, align 8, !tbaa !9
  %33 = getelementptr inbounds nuw %struct.Curl_multi, ptr %32, i32 0, i32 15
  %34 = load ptr, ptr %33, align 8, !tbaa !150
  %35 = load ptr, ptr %3, align 8, !tbaa !43
  %36 = getelementptr inbounds nuw %struct.Curl_easy, ptr %35, i32 0, i32 21
  %37 = getelementptr inbounds nuw %struct.UrlState, ptr %36, i32 0, i32 23
  %38 = load ptr, ptr %4, align 8, !tbaa !9
  %39 = getelementptr inbounds nuw %struct.Curl_multi, ptr %38, i32 0, i32 15
  %40 = call i32 @Curl_splayremove(ptr noundef %34, ptr noundef %37, ptr noundef %39)
  store i32 %40, ptr %8, align 4, !tbaa !30
  %41 = load i32, ptr %8, align 4, !tbaa !30
  %42 = icmp ne i32 %41, 0
  br i1 %42, label %43, label %76

43:                                               ; preds = %28
  br label %44

44:                                               ; preds = %43
  %45 = load ptr, ptr %3, align 8, !tbaa !43
  %46 = icmp ne ptr %45, null
  br i1 %46, label %47, label %73

47:                                               ; preds = %44
  %48 = load ptr, ptr %3, align 8, !tbaa !43
  %49 = getelementptr inbounds nuw %struct.Curl_easy, ptr %48, i32 0, i32 16
  %50 = getelementptr inbounds nuw %struct.UserDefined, ptr %49, i32 0, i32 119
  %51 = load i64, ptr %50, align 2
  %52 = lshr i64 %51, 31
  %53 = and i64 %52, 1
  %54 = trunc i64 %53 to i32
  %55 = icmp ne i32 %54, 0
  br i1 %55, label %56, label %73

56:                                               ; preds = %47
  %57 = load ptr, ptr %3, align 8, !tbaa !43
  %58 = getelementptr inbounds nuw %struct.Curl_easy, ptr %57, i32 0, i32 21
  %59 = getelementptr inbounds nuw %struct.UrlState, ptr %58, i32 0, i32 50
  %60 = load ptr, ptr %59, align 8, !tbaa !151
  %61 = icmp ne ptr %60, null
  br i1 %61, label %62, label %70

62:                                               ; preds = %56
  %63 = load ptr, ptr %3, align 8, !tbaa !43
  %64 = getelementptr inbounds nuw %struct.Curl_easy, ptr %63, i32 0, i32 21
  %65 = getelementptr inbounds nuw %struct.UrlState, ptr %64, i32 0, i32 50
  %66 = load ptr, ptr %65, align 8, !tbaa !151
  %67 = getelementptr inbounds nuw %struct.curl_trc_feat, ptr %66, i32 0, i32 1
  %68 = load i32, ptr %67, align 8, !tbaa !152
  %69 = icmp sge i32 %68, 1
  br i1 %69, label %70, label %73

70:                                               ; preds = %62, %56
  %71 = load ptr, ptr %3, align 8, !tbaa !43
  %72 = load i32, ptr %8, align 4, !tbaa !30
  call void (ptr, ptr, ...) @Curl_infof(ptr noundef %71, ptr noundef @.str.1, i32 noundef %72)
  br label %73

73:                                               ; preds = %70, %62, %47, %44
  br label %74

74:                                               ; preds = %73
  br label %75

75:                                               ; preds = %74
  br label %76

76:                                               ; preds = %75, %28
  %77 = load ptr, ptr %7, align 8, !tbaa !149
  call void @Curl_llist_destroy(ptr noundef %77, ptr noundef null)
  %78 = load ptr, ptr %5, align 8, !tbaa !145
  %79 = getelementptr inbounds nuw %struct.curltime, ptr %78, i32 0, i32 0
  store i64 0, ptr %79, align 8, !tbaa !147
  %80 = load ptr, ptr %5, align 8, !tbaa !145
  %81 = getelementptr inbounds nuw %struct.curltime, ptr %80, i32 0, i32 1
  store i32 0, ptr %81, align 8, !tbaa !148
  store i1 true, ptr %2, align 1
  store i32 1, ptr %6, align 4
  call void @llvm.lifetime.end.p0(i64 4, ptr %8) #9
  call void @llvm.lifetime.end.p0(i64 8, ptr %7) #9
  br label %83

82:                                               ; preds = %23
  store i1 false, ptr %2, align 1
  store i32 1, ptr %6, align 4
  br label %83

83:                                               ; preds = %82, %76, %17
  call void @llvm.lifetime.end.p0(i64 8, ptr %5) #9
  call void @llvm.lifetime.end.p0(i64 8, ptr %4) #9
  %84 = load i1, ptr %2, align 1
  ret i1 %84
}