; Function Attrs: nounwind uwtable
define hidden noundef zeroext i1 @Curl_expire_clear(ptr noundef %0) local_unnamed_addr #0 {
  %2 = getelementptr inbounds nuw i8, ptr %0, i64 208
  %3 = load ptr, ptr %2, align 8, !tbaa !92
  %4 = getelementptr inbounds nuw i8, ptr %0, i64 3512
  %.not = icmp eq ptr %3, null
  br i1 %.not, label %30, label %5

5:                                                ; preds = %1
  %6 = load i64, ptr %4, align 8, !tbaa !135
  %.not24 = icmp eq i64 %6, 0
  br i1 %.not24, label %7, label %10

7:                                                ; preds = %5
  %8 = getelementptr inbounds nuw i8, ptr %0, i64 3520
  %9 = load i32, ptr %8, align 8, !tbaa !136
  %.not25 = icmp eq i32 %9, 0
  br i1 %.not25, label %30, label %10

10:                                               ; preds = %7, %5
  %11 = getelementptr inbounds nuw i8, ptr %0, i64 3584
  %12 = getelementptr inbounds nuw i8, ptr %3, i64 264
  %13 = load ptr, ptr %12, align 8, !tbaa !137
  %14 = getelementptr inbounds nuw i8, ptr %0, i64 3528
  %15 = tail call i32 @Curl_splayremove(ptr noundef %13, ptr noundef nonnull %14, ptr noundef nonnull %12) #19
  %.not28 = icmp eq i32 %15, 0
  br i1 %.not28, label %28, label %16

16:                                               ; preds = %10
  %17 = getelementptr inbounds nuw i8, ptr %0, i64 2658
  %18 = load i64, ptr %17, align 2
  %19 = and i64 %18, 2147483648
  %.not26 = icmp eq i64 %19, 0
  br i1 %.not26, label %28, label %20

20:                                               ; preds = %16
  %21 = getelementptr inbounds nuw i8, ptr %0, i64 4864
  %22 = load ptr, ptr %21, align 8, !tbaa !138
  %.not27 = icmp eq ptr %22, null
  br i1 %.not27, label %27, label %23

23:                                               ; preds = %20
  %24 = getelementptr inbounds nuw i8, ptr %22, i64 8
  %25 = load i32, ptr %24, align 8, !tbaa !139
  %26 = icmp sgt i32 %25, 0
  br i1 %26, label %27, label %28

27:                                               ; preds = %23, %20
  tail call void (ptr, ptr, ...) @Curl_infof(ptr noundef nonnull %0, ptr noundef nonnull @.str.1, i32 noundef %15) #19
  br label %28

28:                                               ; preds = %16, %23, %27, %10
  tail call void @Curl_llist_destroy(ptr noundef nonnull %11, ptr noundef null) #19
  store i64 0, ptr %4, align 8, !tbaa !135
  %29 = getelementptr inbounds nuw i8, ptr %0, i64 3520
  store i32 0, ptr %29, align 8, !tbaa !136
  br label %30

30:                                               ; preds = %7, %1, %28
  %.0 = phi i1 [ true, %28 ], [ false, %1 ], [ false, %7 ]
  ret i1 %.0
}